target datalayout = "e-m:e-p270:32:32-p271:32:32-p272:64:64-i64:64-i128:128-f80:128-n8:16:32:64-S128"
target triple = "x86_64-unknown-linux-gnu"

; Function Attrs: nounwind sspstrong uwtable
define internal i32 @parse_md5(ptr noundef %src, ptr noundef %dest) #0 {
entry:
  %retval = alloca i32, align 4
  %src.addr = alloca ptr, align 8
  %dest.addr = alloca ptr, align 8
  %i = alloca i32, align 4
  %d = alloca i32, align 4
  %c = alloca i32, align 4
  store ptr %src, ptr %src.addr, align 8
  store ptr %dest, ptr %dest.addr, align 8
  %0 = load ptr, ptr %src.addr, align 8
  %call = call i64 @strlen(ptr noundef %0) #9
  %cmp = icmp ne i64 %call, 32
  br i1 %cmp, label %if.then, label %if.end

if.then:                                          ; preds = %entry
  store i32 0, ptr %retval, align 4
  br label %return

if.end:                                           ; preds = %entry
  store i32 0, ptr %i, align 4
  br label %for.cond

for.cond:                                         ; preds = %for.inc, %if.end
  %1 = load i32, ptr %i, align 4
  %cmp1 = icmp ult i32 %1, 16
  br i1 %cmp1, label %for.body, label %for.end

for.body:                                         ; preds = %for.cond
  %2 = load ptr, ptr %src.addr, align 8
  %incdec.ptr = getelementptr inbounds i8, ptr %2, i32 1
  store ptr %incdec.ptr, ptr %src.addr, align 8
  %3 = load i8, ptr %2, align 1
  %conv = sext i8 %3 to i32
  store i32 %conv, ptr %c, align 4
  %call2 = call ptr @__ctype_b_loc() #11
  %4 = load ptr, ptr %call2, align 8
  %5 = load i32, ptr %c, align 4
  %idxprom = sext i32 %5 to i64
  %arrayidx = getelementptr inbounds i16, ptr %4, i64 %idxprom
  %6 = load i16, ptr %arrayidx, align 2
  %conv3 = zext i16 %6 to i32
  %and = and i32 %conv3, 2048
  %tobool = icmp ne i32 %and, 0
  br i1 %tobool, label %if.then4, label %if.else

if.then4:                                         ; preds = %for.body
  %7 = load i32, ptr %c, align 4
  %sub = sub nsw i32 %7, 48
  store i32 %sub, ptr %d, align 4
  br label %if.end23

if.else:                                          ; preds = %for.body
  %8 = load i32, ptr %c, align 4
  %cmp5 = icmp sge i32 %8, 97
  br i1 %cmp5, label %land.lhs.true, label %if.else11

land.lhs.true:                                    ; preds = %if.else
  %9 = load i32, ptr %c, align 4
  %cmp7 = icmp sle i32 %9, 102
  br i1 %cmp7, label %if.then9, label %if.else11

if.then9:                                         ; preds = %land.lhs.true
  %10 = load i32, ptr %c, align 4
  %sub10 = sub nsw i32 %10, 97
  %add = add i32 %sub10, 10
  store i32 %add, ptr %d, align 4
  br label %if.end22

if.else11:                                        ; preds = %land.lhs.true, %if.else
  %11 = load i32, ptr %c, align 4
  %cmp12 = icmp sge i32 %11, 65
  br i1 %cmp12, label %land.lhs.true14, label %if.else20

land.lhs.true14:                                  ; preds = %if.else11
  %12 = load i32, ptr %c, align 4
  %cmp15 = icmp sle i32 %12, 70
  br i1 %cmp15, label %if.then17, label %if.else20

if.then17:                                        ; preds = %land.lhs.true14
  %13 = load i32, ptr %c, align 4
  %sub18 = sub nsw i32 %13, 65
  %add19 = add i32 %sub18, 10
  store i32 %add19, ptr %d, align 4
  br label %if.end21

if.else20:                                        ; preds = %land.lhs.true14, %if.else11
  store i32 0, ptr %retval, align 4
  br label %return

if.end21:                                         ; preds = %if.then17
  br label %if.end22

if.end22:                                         ; preds = %if.end21, %if.then9
  br label %if.end23

if.end23:                                         ; preds = %if.end22, %if.then4
  %14 = load i32, ptr %d, align 4
  %shl = shl i32 %14, 4
  store i32 %shl, ptr %d, align 4
  %15 = load ptr, ptr %src.addr, align 8
  %incdec.ptr24 = getelementptr inbounds i8, ptr %15, i32 1
  store ptr %incdec.ptr24, ptr %src.addr, align 8
  %16 = load i8, ptr %15, align 1
  %conv25 = sext i8 %16 to i32
  store i32 %conv25, ptr %c, align 4
  %call26 = call ptr @__ctype_b_loc() #11
  %17 = load ptr, ptr %call26, align 8
  %18 = load i32, ptr %c, align 4
  %idxprom27 = sext i32 %18 to i64
  %arrayidx28 = getelementptr inbounds i16, ptr %17, i64 %idxprom27
  %19 = load i16, ptr %arrayidx28, align 2
  %conv29 = zext i16 %19 to i32
  %and30 = and i32 %conv29, 2048
  %tobool31 = icmp ne i32 %and30, 0
  br i1 %tobool31, label %if.then32, label %if.else34

if.then32:                                        ; preds = %if.end23
  %20 = load i32, ptr %c, align 4
  %sub33 = sub nsw i32 %20, 48
  %21 = load i32, ptr %d, align 4
  %or = or i32 %21, %sub33
  store i32 %or, ptr %d, align 4
  br label %if.end57

if.else34:                                        ; preds = %if.end23
  %22 = load i32, ptr %c, align 4
  %cmp35 = icmp sge i32 %22, 97
  br i1 %cmp35, label %land.lhs.true37, label %if.else44

land.lhs.true37:                                  ; preds = %if.else34
  %23 = load i32, ptr %c, align 4
  %cmp38 = icmp sle i32 %23, 102
  br i1 %cmp38, label %if.then40, label %if.else44

if.then40:                                        ; preds = %land.lhs.true37
  %24 = load i32, ptr %c, align 4
  %sub41 = sub nsw i32 %24, 97
  %add42 = add i32 %sub41, 10
  %25 = load i32, ptr %d, align 4
  %or43 = or i32 %25, %add42
  store i32 %or43, ptr %d, align 4
  br label %if.end56

if.else44:                                        ; preds = %land.lhs.true37, %if.else34
  %26 = load i32, ptr %c, align 4
  %cmp45 = icmp sge i32 %26, 65
  br i1 %cmp45, label %land.lhs.true47, label %if.else54

land.lhs.true47:                                  ; preds = %if.else44
  %27 = load i32, ptr %c, align 4
  %cmp48 = icmp sle i32 %27, 70
  br i1 %cmp48, label %if.then50, label %if.else54

if.then50:                                        ; preds = %land.lhs.true47
  %28 = load i32, ptr %c, align 4
  %sub51 = sub nsw i32 %28, 65
  %add52 = add i32 %sub51, 10
  %29 = load i32, ptr %d, align 4
  %or53 = or i32 %29, %add52
  store i32 %or53, ptr %d, align 4
  br label %if.end55

if.else54:                                        ; preds = %land.lhs.true47, %if.else44
  store i32 0, ptr %retval, align 4
  br label %return

if.end55:                                         ; preds = %if.then50
  br label %if.end56

if.end56:                                         ; preds = %if.end55, %if.then40
  br label %if.end57

if.end57:                                         ; preds = %if.end56, %if.then32
  %30 = load i32, ptr %d, align 4
  %conv58 = trunc i32 %30 to i8
  %31 = load ptr, ptr %dest.addr, align 8
  %32 = load i32, ptr %i, align 4
  %idxprom59 = zext i32 %32 to i64
  %arrayidx60 = getelementptr inbounds i8, ptr %31, i64 %idxprom59
  store i8 %conv58, ptr %arrayidx60, align 1
  br label %for.inc

for.inc:                                          ; preds = %if.end57
  %33 = load i32, ptr %i, align 4
  %inc = add i32 %33, 1
  store i32 %inc, ptr %i, align 4
  br label %for.cond, !llvm.loop !13

for.end:                                          ; preds = %for.cond
  store i32 1, ptr %retval, align 4
  br label %return

return:                                           ; preds = %for.end, %if.else54, %if.else20, %if.then
  %34 = load i32, ptr %retval, align 4
  ret i32 %34
}