; Function Attrs: nofree nounwind sspstrong memory(read, argmem: readwrite, inaccessiblemem: none) uwtable
define internal fastcc range(i32 0, 2) i32 @parse_md5(ptr noundef readonly captures(none) %src, ptr noundef writeonly captures(none) %dest) unnamed_addr #6 {
entry:
  %call = tail call i64 @strlen(ptr noundef nonnull dereferenceable(1) %src) #21
  %cmp.not = icmp eq i64 %call, 32
  br i1 %cmp.not, label %for.cond.preheader, label %return

for.cond.preheader:                               ; preds = %entry
  %call2 = tail call ptr @__ctype_b_loc() #23
  br label %for.body

for.body:                                         ; preds = %for.cond.preheader, %if.end57
  %indvars.iv = phi i64 [ 0, %for.cond.preheader ], [ %indvars.iv.next, %if.end57 ]
  %src.addr.027 = phi ptr [ %src, %for.cond.preheader ], [ %incdec.ptr24, %if.end57 ]
  %incdec.ptr = getelementptr inbounds nuw i8, ptr %src.addr.027, i64 1
  %0 = load i8, ptr %src.addr.027, align 1
  %1 = load ptr, ptr %call2, align 8
  %idxprom = sext i8 %0 to i64
  %arrayidx = getelementptr inbounds i16, ptr %1, i64 %idxprom
  %2 = load i16, ptr %arrayidx, align 2
  %3 = and i16 %2, 2048
  %tobool.not = icmp eq i16 %3, 0
  br i1 %tobool.not, label %if.else, label %if.end23

if.else:                                          ; preds = %for.body
  %4 = add i8 %0, -97
  %or.cond = icmp ult i8 %4, 6
  br i1 %or.cond, label %if.end23, label %if.else11

if.else11:                                        ; preds = %if.else
  %5 = add i8 %0, -65
  %or.cond1 = icmp ult i8 %5, 6
  br i1 %or.cond1, label %if.end23, label %return

if.end23:                                         ; preds = %if.else11, %if.else, %for.body
  %.sink = phi i8 [ -48, %for.body ], [ -87, %if.else ], [ -55, %if.else11 ]
  %add = add i8 %0, %.sink
  %shl = shl i8 %add, 4
  %incdec.ptr24 = getelementptr inbounds nuw i8, ptr %src.addr.027, i64 2
  %6 = load i8, ptr %incdec.ptr, align 1
  %idxprom27 = sext i8 %6 to i64
  %arrayidx28 = getelementptr inbounds i16, ptr %1, i64 %idxprom27
  %7 = load i16, ptr %arrayidx28, align 2
  %8 = and i16 %7, 2048
  %tobool31.not = icmp eq i16 %8, 0
  br i1 %tobool31.not, label %if.else34, label %if.end57

if.else34:                                        ; preds = %if.end23
  %9 = add i8 %6, -97
  %or.cond2 = icmp ult i8 %9, 6
  br i1 %or.cond2, label %if.end57, label %if.else44

if.else44:                                        ; preds = %if.else34
  %10 = add i8 %6, -65
  %or.cond3 = icmp ult i8 %10, 6
  br i1 %or.cond3, label %if.end57, label %return

if.end57:                                         ; preds = %if.else44, %if.else34, %if.end23
  %.sink30 = phi i8 [ -48, %if.end23 ], [ -87, %if.else34 ], [ -55, %if.else44 ]
  %add42 = add i8 %6, %.sink30
  %d.1 = or i8 %add42, %shl
  %arrayidx60 = getelementptr inbounds nuw i8, ptr %dest, i64 %indvars.iv
  store i8 %d.1, ptr %arrayidx60, align 1
  %indvars.iv.next = add nuw nsw i64 %indvars.iv, 1
  %exitcond.not = icmp eq i64 %indvars.iv.next, 16
  br i1 %exitcond.not, label %return, label %for.body, !llvm.loop !14

return:                                           ; preds = %if.end57, %if.else44, %if.else11, %entry
  %retval.0 = phi i32 [ 0, %entry ], [ 1, %if.end57 ], [ 0, %if.else44 ], [ 0, %if.else11 ]
  ret i32 %retval.0
}